; Function Attrs: nofree norecurse nosync nounwind memory(read, inaccessiblemem: none) uwtable
define i32 @Cba_NtkCoFinNum(ptr noundef readonly captures(none) %0) local_unnamed_addr #11 {
  %2 = getelementptr i8, ptr %0, i64 44
  %.val10 = load i32, ptr %2, align 4
  %3 = getelementptr i8, ptr %0, i64 76
  %.val11 = load i32, ptr %3, align 4
  %4 = icmp sgt i32 %.val11, 0
  br i1 %4, label %.lr.ph, label %.critedge

.lr.ph:                                           ; preds = %1
  %5 = getelementptr i8, ptr %0, i64 80
  %.val12 = load ptr, ptr %5, align 8
  %6 = getelementptr i8, ptr %0, i64 112
  %.val = load ptr, ptr %6, align 8
  %wide.trip.count = zext nneg i32 %.val11 to i64
  br label %7

7:                                                ; preds = %.lr.ph, %7
  %indvars.iv = phi i64 [ 0, %.lr.ph ], [ %indvars.iv.next, %7 ]
  %.014 = phi i32 [ %.val10, %.lr.ph ], [ %16, %7 ]
  %8 = getelementptr inbounds nuw i32, ptr %.val12, i64 %indvars.iv
  %9 = load i32, ptr %8, align 4
  %10 = sext i32 %9 to i64
  %11 = getelementptr i32, ptr %.val, i64 %10
  %12 = getelementptr i8, ptr %11, i64 4
  %13 = load i32, ptr %12, align 4
  %14 = load i32, ptr %11, align 4
  %15 = add i32 %13, %.014
  %16 = sub i32 %15, %14
  %indvars.iv.next = add nuw nsw i64 %indvars.iv, 1
  %exitcond.not = icmp eq i64 %indvars.iv.next, %wide.trip.count
  br i1 %exitcond.not, label %.critedge, label %7, !llvm.loop !32

.critedge:                                        ; preds = %7, %1
  %.0.lcssa = phi i32 [ %.val10, %1 ], [ %16, %7 ]
  ret i32 %.0.lcssa
}